target datalayout = "e-m:e-p270:32:32-p271:32:32-p272:64:64-i64:64-i128:128-f80:128-n8:16:32:64-S128"
target triple = "x86_64-pc-linux-gnu"

%struct.archive_read = type { %struct.archive, ptr, i32, i64, i64, %struct.archive_read_client, [16 x %struct.archive_read_filter_bidder], ptr, i32, i64, i32, i32, [16 x %struct.archive_format_descriptor], ptr, ptr, ptr, %struct.anon }
%struct.archive = type { i32, i32, ptr, i32, ptr, i32, i32, ptr, %struct.archive_string, ptr, i32, i32, ptr, ptr, i64, i64, i64, i8, i64 }
%struct.archive_string = type { ptr, i64, i64 }
%struct.archive_read_client = type { ptr, ptr, ptr, ptr, ptr, ptr, i32, i32, i64, ptr }
%struct.archive_read_filter_bidder = type { ptr, ptr, ptr }
%struct.archive_format_descriptor = type { ptr, ptr, ptr, ptr, ptr, ptr, ptr, ptr, ptr, ptr, ptr }
%struct.anon = type { ptr, ptr, i32, ptr, ptr }
%struct.zip = type { %struct.archive_string, i64, i64, i64, i64, i32, ptr, %struct.archive_rb_tree, %struct.archive_rb_tree, i64, ptr, i64, i64, i64, i64, ptr, i8, i8, i8, ptr, i64, %struct.z_stream_s, i8, %struct.lzma_stream, i8, %struct.bz_stream, i8, ptr, i8, %struct.IByteIn, i64, %struct.CPpmd8, i8, i8, ptr, ptr, ptr, i32, i32, i8, ptr, ptr, i64, i64, i64, %struct.trad_enc_ctx, i8, %struct.archive_crypto_ctx, i8, ptr, i8, i32, i32, i32, i32, i32, i32, i32, ptr, ptr, ptr }
%struct.archive_rb_tree = type { ptr, ptr }
%struct.z_stream_s = type { ptr, i32, i64, ptr, i32, i64, ptr, ptr, ptr, ptr, ptr, i32, i64, i64 }
%struct.lzma_stream = type { ptr, i64, i64, ptr, i64, i64, ptr, ptr, ptr, ptr, ptr, ptr, i64, i64, i64, i64, i32, i32 }
%struct.bz_stream = type { ptr, i32, i32, i32, ptr, i32, i32, i32, ptr, ptr, ptr, ptr }
%struct.IByteIn = type { ptr, ptr }
%struct.CPpmd8 = type { ptr, ptr, ptr, i32, i32, i32, i32, i32, i32, i32, i32, ptr, ptr, ptr, ptr, ptr, i32, i32, i32, i32, i32, %union.anon, [38 x i8], [128 x i8], [38 x i32], [38 x i32], [256 x i8], [260 x i8], %struct.CPpmd_See, [24 x [32 x %struct.CPpmd_See]], [25 x [64 x i16]] }
%union.anon = type { ptr }
%struct.CPpmd_See = type { i16, i8, i8 }
%struct.trad_enc_ctx = type { [3 x i32] }
%struct.archive_crypto_ctx = type { ptr, ptr, [32 x i8], i32, [16 x i8], [16 x i8], i32 }

@.str.95 = private unnamed_addr constant [23 x i8] c"Truncated xz file body\00", align 1
@.str.96 = private unnamed_addr constant [25 x i8] c"xz data error (error %d)\00", align 1
@.str.97 = private unnamed_addr constant [20 x i8] c"xz unknown error %d\00", align 1
@.str.98 = private unnamed_addr constant [27 x i8] c"xz premature end of stream\00", align 1
@.str.99 = private unnamed_addr constant [29 x i8] c"xz initialization failed(%d)\00", align 1
@.str.100 = private unnamed_addr constant [31 x i8] c"No memory for xz decompression\00", align 1

; Function Attrs: nounwind uwtable
define internal i32 @zipx_xz_init(ptr noundef %0, ptr noundef %1) #0 {
  %3 = alloca i32, align 4
  %4 = alloca ptr, align 8
  %5 = alloca ptr, align 8
  %6 = alloca i32, align 4
  %7 = alloca i32, align 4
  store ptr %0, ptr %4, align 8, !tbaa !11
  store ptr %1, ptr %5, align 8, !tbaa !13
  call void @llvm.lifetime.start.p0(i64 4, ptr %6) #11
  %8 = load ptr, ptr %5, align 8, !tbaa !13
  %9 = getelementptr inbounds nuw %struct.zip, ptr %8, i32 0, i32 24
  %10 = load i8, ptr %9, align 8, !tbaa !103
  %11 = icmp ne i8 %10, 0
  br i1 %11, label %12, label %17

12:                                               ; preds = %2
  %13 = load ptr, ptr %5, align 8, !tbaa !13
  %14 = getelementptr inbounds nuw %struct.zip, ptr %13, i32 0, i32 23
  call void @lzma_end(ptr noundef %14) #11
  %15 = load ptr, ptr %5, align 8, !tbaa !13
  %16 = getelementptr inbounds nuw %struct.zip, ptr %15, i32 0, i32 24
  store i8 0, ptr %16, align 8, !tbaa !103
  br label %17

17:                                               ; preds = %12, %2
  %18 = load ptr, ptr %5, align 8, !tbaa !13
  %19 = getelementptr inbounds nuw %struct.zip, ptr %18, i32 0, i32 23
  call void @llvm.memset.p0.i64(ptr align 8 %19, i8 0, i64 136, i1 false)
  %20 = load ptr, ptr %5, align 8, !tbaa !13
  %21 = getelementptr inbounds nuw %struct.zip, ptr %20, i32 0, i32 23
  %22 = call i32 @lzma_stream_decoder(ptr noundef %21, i64 noundef -1, i32 noundef 0) #11
  store i32 %22, ptr %6, align 4, !tbaa !9
  %23 = load i32, ptr %6, align 4, !tbaa !9
  %24 = icmp ne i32 %23, 0
  br i1 %24, label %25, label %29

25:                                               ; preds = %17
  %26 = load ptr, ptr %4, align 8, !tbaa !11
  %27 = getelementptr inbounds nuw %struct.archive_read, ptr %26, i32 0, i32 0
  %28 = load i32, ptr %6, align 4, !tbaa !9
  call void (ptr, i32, ptr, ...) @archive_set_error(ptr noundef %27, i32 noundef -1, ptr noundef @.str.99, i32 noundef %28)
  store i32 -25, ptr %3, align 4
  store i32 1, ptr %7, align 4
  br label %53

29:                                               ; preds = %17
  %30 = load ptr, ptr %5, align 8, !tbaa !13
  %31 = getelementptr inbounds nuw %struct.zip, ptr %30, i32 0, i32 24
  store i8 1, ptr %31, align 8, !tbaa !103
  %32 = load ptr, ptr %5, align 8, !tbaa !13
  %33 = getelementptr inbounds nuw %struct.zip, ptr %32, i32 0, i32 19
  %34 = load ptr, ptr %33, align 8, !tbaa !107
  call void @free(ptr noundef %34) #11
  %35 = load ptr, ptr %5, align 8, !tbaa !13
  %36 = getelementptr inbounds nuw %struct.zip, ptr %35, i32 0, i32 20
  store i64 262144, ptr %36, align 8, !tbaa !158
  %37 = load ptr, ptr %5, align 8, !tbaa !13
  %38 = getelementptr inbounds nuw %struct.zip, ptr %37, i32 0, i32 20
  %39 = load i64, ptr %38, align 8, !tbaa !158
  %40 = call noalias ptr @malloc(i64 noundef %39) #14
  %41 = load ptr, ptr %5, align 8, !tbaa !13
  %42 = getelementptr inbounds nuw %struct.zip, ptr %41, i32 0, i32 19
  store ptr %40, ptr %42, align 8, !tbaa !107
  %43 = load ptr, ptr %5, align 8, !tbaa !13
  %44 = getelementptr inbounds nuw %struct.zip, ptr %43, i32 0, i32 19
  %45 = load ptr, ptr %44, align 8, !tbaa !107
  %46 = icmp eq ptr %45, null
  br i1 %46, label %47, label %50

47:                                               ; preds = %29
  %48 = load ptr, ptr %4, align 8, !tbaa !11
  %49 = getelementptr inbounds nuw %struct.archive_read, ptr %48, i32 0, i32 0
  call void (ptr, i32, ptr, ...) @archive_set_error(ptr noundef %49, i32 noundef 12, ptr noundef @.str.100)
  store i32 -30, ptr %3, align 4
  store i32 1, ptr %7, align 4
  br label %53

50:                                               ; preds = %29
  %51 = load ptr, ptr %5, align 8, !tbaa !13
  %52 = getelementptr inbounds nuw %struct.zip, ptr %51, i32 0, i32 17
  store i8 1, ptr %52, align 1, !tbaa !123
  store i32 0, ptr %3, align 4
  store i32 1, ptr %7, align 4
  br label %53

53:                                               ; preds = %50, %47, %25
  call void @llvm.lifetime.end.p0(i64 4, ptr %6) #11
  %54 = load i32, ptr %3, align 4
  ret i32 %54
}

; Function Attrs: nounwind uwtable
define internal i32 @zip_read_data_zipx_xz(ptr noundef %0, ptr noundef %1, ptr noundef %2, ptr noundef %3) #0 {
  %5 = alloca i32, align 4
  %6 = alloca ptr, align 8
  %7 = alloca ptr, align 8
  %8 = alloca ptr, align 8
  %9 = alloca ptr, align 8
  %10 = alloca ptr, align 8
  %11 = alloca i32, align 4
  %12 = alloca i32, align 4
  %13 = alloca ptr, align 8
  %14 = alloca i64, align 8
  %15 = alloca i64, align 8
  %16 = alloca i64, align 8
  %17 = alloca i32, align 4
  store ptr %0, ptr %6, align 8, !tbaa !11
  store ptr %1, ptr %7, align 8, !tbaa !44
  store ptr %2, ptr %8, align 8, !tbaa !81
  store ptr %3, ptr %9, align 8, !tbaa !81
  call void @llvm.lifetime.start.p0(i64 8, ptr %10) #11
  %18 = load ptr, ptr %6, align 8, !tbaa !11
  %19 = getelementptr inbounds nuw %struct.archive_read, ptr %18, i32 0, i32 13
  %20 = load ptr, ptr %19, align 8, !tbaa !47
  %21 = getelementptr inbounds nuw %struct.archive_format_descriptor, ptr %20, i32 0, i32 0
  %22 = load ptr, ptr %21, align 8, !tbaa !60
  store ptr %22, ptr %10, align 8, !tbaa !13
  call void @llvm.lifetime.start.p0(i64 4, ptr %11) #11
  call void @llvm.lifetime.start.p0(i64 4, ptr %12) #11
  call void @llvm.lifetime.start.p0(i64 8, ptr %13) #11
  call void @llvm.lifetime.start.p0(i64 8, ptr %14) #11
  call void @llvm.lifetime.start.p0(i64 8, ptr %15) #11
  call void @llvm.lifetime.start.p0(i64 8, ptr %16) #11
  store i64 0, ptr %16, align 8, !tbaa !43
  %23 = load ptr, ptr %10, align 8, !tbaa !13
  %24 = getelementptr inbounds nuw %struct.zip, ptr %23, i32 0, i32 17
  %25 = load i8, ptr %24, align 1, !tbaa !123
  %26 = icmp ne i8 %25, 0
  br i1 %26, label %36, label %27

27:                                               ; preds = %4
  %28 = load ptr, ptr %6, align 8, !tbaa !11
  %29 = load ptr, ptr %10, align 8, !tbaa !13
  %30 = call i32 @zipx_xz_init(ptr noundef %28, ptr noundef %29)
  store i32 %30, ptr %11, align 4, !tbaa !9
  %31 = load i32, ptr %11, align 4, !tbaa !9
  %32 = icmp ne i32 %31, 0
  br i1 %32, label %33, label %35

33:                                               ; preds = %27
  %34 = load i32, ptr %11, align 4, !tbaa !9
  store i32 %34, ptr %5, align 4
  store i32 1, ptr %17, align 4
  br label %151

35:                                               ; preds = %27
  br label %36

36:                                               ; preds = %35, %4
  %37 = load ptr, ptr %6, align 8, !tbaa !11
  %38 = call ptr @__archive_read_ahead(ptr noundef %37, i64 noundef 1, ptr noundef %14)
  store ptr %38, ptr %13, align 8, !tbaa !44
  %39 = load i64, ptr %14, align 8, !tbaa !43
  %40 = icmp slt i64 %39, 0
  br i1 %40, label %41, label %44

41:                                               ; preds = %36
  %42 = load ptr, ptr %6, align 8, !tbaa !11
  %43 = getelementptr inbounds nuw %struct.archive_read, ptr %42, i32 0, i32 0
  call void (ptr, i32, ptr, ...) @archive_set_error(ptr noundef %43, i32 noundef 84, ptr noundef @.str.95)
  store i32 -30, ptr %5, align 4
  store i32 1, ptr %17, align 4
  br label %151

44:                                               ; preds = %36
  %45 = load ptr, ptr %10, align 8, !tbaa !13
  %46 = getelementptr inbounds nuw %struct.zip, ptr %45, i32 0, i32 11
  %47 = load i64, ptr %46, align 8, !tbaa !98
  %48 = load i64, ptr %14, align 8, !tbaa !43
  %49 = icmp slt i64 %47, %48
  br i1 %49, label %50, label %54

50:                                               ; preds = %44
  %51 = load ptr, ptr %10, align 8, !tbaa !13
  %52 = getelementptr inbounds nuw %struct.zip, ptr %51, i32 0, i32 11
  %53 = load i64, ptr %52, align 8, !tbaa !98
  br label %56

54:                                               ; preds = %44
  %55 = load i64, ptr %14, align 8, !tbaa !43
  br label %56

56:                                               ; preds = %54, %50
  %57 = phi i64 [ %53, %50 ], [ %55, %54 ]
  store i64 %57, ptr %15, align 8, !tbaa !43
  %58 = load ptr, ptr %13, align 8, !tbaa !44
  %59 = load ptr, ptr %10, align 8, !tbaa !13
  %60 = getelementptr inbounds nuw %struct.zip, ptr %59, i32 0, i32 23
  %61 = getelementptr inbounds nuw %struct.lzma_stream, ptr %60, i32 0, i32 0
  store ptr %58, ptr %61, align 8, !tbaa !170
  %62 = load i64, ptr %15, align 8, !tbaa !43
  %63 = load ptr, ptr %10, align 8, !tbaa !13
  %64 = getelementptr inbounds nuw %struct.zip, ptr %63, i32 0, i32 23
  %65 = getelementptr inbounds nuw %struct.lzma_stream, ptr %64, i32 0, i32 1
  store i64 %62, ptr %65, align 8, !tbaa !171
  %66 = load ptr, ptr %10, align 8, !tbaa !13
  %67 = getelementptr inbounds nuw %struct.zip, ptr %66, i32 0, i32 23
  %68 = getelementptr inbounds nuw %struct.lzma_stream, ptr %67, i32 0, i32 2
  store i64 0, ptr %68, align 8, !tbaa !172
  %69 = load ptr, ptr %10, align 8, !tbaa !13
  %70 = getelementptr inbounds nuw %struct.zip, ptr %69, i32 0, i32 19
  %71 = load ptr, ptr %70, align 8, !tbaa !107
  %72 = load ptr, ptr %10, align 8, !tbaa !13
  %73 = getelementptr inbounds nuw %struct.zip, ptr %72, i32 0, i32 23
  %74 = getelementptr inbounds nuw %struct.lzma_stream, ptr %73, i32 0, i32 3
  store ptr %71, ptr %74, align 8, !tbaa !173
  %75 = load ptr, ptr %10, align 8, !tbaa !13
  %76 = getelementptr inbounds nuw %struct.zip, ptr %75, i32 0, i32 20
  %77 = load i64, ptr %76, align 8, !tbaa !158
  %78 = load ptr, ptr %10, align 8, !tbaa !13
  %79 = getelementptr inbounds nuw %struct.zip, ptr %78, i32 0, i32 23
  %80 = getelementptr inbounds nuw %struct.lzma_stream, ptr %79, i32 0, i32 4
  store i64 %77, ptr %80, align 8, !tbaa !174
  %81 = load ptr, ptr %10, align 8, !tbaa !13
  %82 = getelementptr inbounds nuw %struct.zip, ptr %81, i32 0, i32 23
  %83 = getelementptr inbounds nuw %struct.lzma_stream, ptr %82, i32 0, i32 5
  store i64 0, ptr %83, align 8, !tbaa !175
  %84 = load ptr, ptr %10, align 8, !tbaa !13
  %85 = getelementptr inbounds nuw %struct.zip, ptr %84, i32 0, i32 23
  %86 = call i32 @lzma_code(ptr noundef %85, i32 noundef 0) #11
  store i32 %86, ptr %12, align 4, !tbaa !9
  %87 = load i32, ptr %12, align 4, !tbaa !9
  switch i32 %87, label %93 [
    i32 9, label %88
    i32 2, label %92
    i32 0, label %92
    i32 1, label %97
  ]

88:                                               ; preds = %56
  %89 = load ptr, ptr %6, align 8, !tbaa !11
  %90 = getelementptr inbounds nuw %struct.archive_read, ptr %89, i32 0, i32 0
  %91 = load i32, ptr %12, align 4, !tbaa !9
  call void (ptr, i32, ptr, ...) @archive_set_error(ptr noundef %90, i32 noundef -1, ptr noundef @.str.96, i32 noundef %91)
  store i32 -30, ptr %5, align 4
  store i32 1, ptr %17, align 4
  br label %151

92:                                               ; preds = %56, %56
  br label %116

93:                                               ; preds = %56
  %94 = load ptr, ptr %6, align 8, !tbaa !11
  %95 = getelementptr inbounds nuw %struct.archive_read, ptr %94, i32 0, i32 0
  %96 = load i32, ptr %12, align 4, !tbaa !9
  call void (ptr, i32, ptr, ...) @archive_set_error(ptr noundef %95, i32 noundef -1, ptr noundef @.str.97, i32 noundef %96)
  store i32 -30, ptr %5, align 4
  store i32 1, ptr %17, align 4
  br label %151

97:                                               ; preds = %56
  %98 = load ptr, ptr %10, align 8, !tbaa !13
  %99 = getelementptr inbounds nuw %struct.zip, ptr %98, i32 0, i32 23
  call void @lzma_end(ptr noundef %99) #11
  %100 = load ptr, ptr %10, align 8, !tbaa !13
  %101 = getelementptr inbounds nuw %struct.zip, ptr %100, i32 0, i32 24
  store i8 0, ptr %101, align 8, !tbaa !103
  %102 = load ptr, ptr %10, align 8, !tbaa !13
  %103 = getelementptr inbounds nuw %struct.zip, ptr %102, i32 0, i32 23
  %104 = getelementptr inbounds nuw %struct.lzma_stream, ptr %103, i32 0, i32 2
  %105 = load i64, ptr %104, align 8, !tbaa !172
  %106 = load ptr, ptr %10, align 8, !tbaa !13
  %107 = getelementptr inbounds nuw %struct.zip, ptr %106, i32 0, i32 11
  %108 = load i64, ptr %107, align 8, !tbaa !98
  %109 = icmp ne i64 %105, %108
  br i1 %109, label %110, label %113

110:                                              ; preds = %97
  %111 = load ptr, ptr %6, align 8, !tbaa !11
  %112 = getelementptr inbounds nuw %struct.archive_read, ptr %111, i32 0, i32 0
  call void (ptr, i32, ptr, ...) @archive_set_error(ptr noundef %112, i32 noundef -1, ptr noundef @.str.98)
  store i32 -30, ptr %5, align 4
  store i32 1, ptr %17, align 4
  br label %151

113:                                              ; preds = %97
  %114 = load ptr, ptr %10, align 8, !tbaa !13
  %115 = getelementptr inbounds nuw %struct.zip, ptr %114, i32 0, i32 18
  store i8 1, ptr %115, align 2, !tbaa !84
  br label %116

116:                                              ; preds = %113, %92
  %117 = load ptr, ptr %10, align 8, !tbaa !13
  %118 = getelementptr inbounds nuw %struct.zip, ptr %117, i32 0, i32 23
  %119 = getelementptr inbounds nuw %struct.lzma_stream, ptr %118, i32 0, i32 2
  %120 = load i64, ptr %119, align 8, !tbaa !172
  store i64 %120, ptr %16, align 8, !tbaa !43
  %121 = load ptr, ptr %6, align 8, !tbaa !11
  %122 = load i64, ptr %16, align 8, !tbaa !43
  %123 = call i64 @__archive_read_consume(ptr noundef %121, i64 noundef %122)
  %124 = load i64, ptr %16, align 8, !tbaa !43
  %125 = load ptr, ptr %10, align 8, !tbaa !13
  %126 = getelementptr inbounds nuw %struct.zip, ptr %125, i32 0, i32 11
  %127 = load i64, ptr %126, align 8, !tbaa !98
  %128 = sub nsw i64 %127, %124
  store i64 %128, ptr %126, align 8, !tbaa !98
  %129 = load i64, ptr %16, align 8, !tbaa !43
  %130 = load ptr, ptr %10, align 8, !tbaa !13
  %131 = getelementptr inbounds nuw %struct.zip, ptr %130, i32 0, i32 12
  %132 = load i64, ptr %131, align 8, !tbaa !96
  %133 = add nsw i64 %132, %129
  store i64 %133, ptr %131, align 8, !tbaa !96
  %134 = load ptr, ptr %10, align 8, !tbaa !13
  %135 = getelementptr inbounds nuw %struct.zip, ptr %134, i32 0, i32 23
  %136 = getelementptr inbounds nuw %struct.lzma_stream, ptr %135, i32 0, i32 5
  %137 = load i64, ptr %136, align 8, !tbaa !175
  %138 = load ptr, ptr %10, align 8, !tbaa !13
  %139 = getelementptr inbounds nuw %struct.zip, ptr %138, i32 0, i32 13
  %140 = load i64, ptr %139, align 8, !tbaa !83
  %141 = add i64 %140, %137
  store i64 %141, ptr %139, align 8, !tbaa !83
  %142 = load ptr, ptr %10, align 8, !tbaa !13
  %143 = getelementptr inbounds nuw %struct.zip, ptr %142, i32 0, i32 23
  %144 = getelementptr inbounds nuw %struct.lzma_stream, ptr %143, i32 0, i32 5
  %145 = load i64, ptr %144, align 8, !tbaa !175
  %146 = load ptr, ptr %8, align 8, !tbaa !81
  store i64 %145, ptr %146, align 8, !tbaa !43
  %147 = load ptr, ptr %10, align 8, !tbaa !13
  %148 = getelementptr inbounds nuw %struct.zip, ptr %147, i32 0, i32 19
  %149 = load ptr, ptr %148, align 8, !tbaa !107
  %150 = load ptr, ptr %7, align 8, !tbaa !44
  store ptr %149, ptr %150, align 8, !tbaa !44
  store i32 0, ptr %5, align 4
  store i32 1, ptr %17, align 4
  br label %151

151:                                              ; preds = %116, %110, %93, %88, %41, %33
  call void @llvm.lifetime.end.p0(i64 8, ptr %16) #11
  call void @llvm.lifetime.end.p0(i64 8, ptr %15) #11
  call void @llvm.lifetime.end.p0(i64 8, ptr %14) #11
  call void @llvm.lifetime.end.p0(i64 8, ptr %13) #11
  call void @llvm.lifetime.end.p0(i64 4, ptr %12) #11
  call void @llvm.lifetime.end.p0(i64 4, ptr %11) #11
  call void @llvm.lifetime.end.p0(i64 8, ptr %10) #11
  %152 = load i32, ptr %5, align 4
  ret i32 %152
}