; Function Attrs: nounwind uwtable
define internal fastcc range(i32 -30, 1) i32 @zip_read_data_zipx_xz(ptr noundef %0, ptr noundef writeonly captures(none) %1, ptr noundef writeonly captures(none) %2) unnamed_addr #0 {
  %4 = alloca i64, align 8
  %5 = getelementptr inbounds nuw i8, ptr %0, i64 2072
  %6 = load ptr, ptr %5, align 8, !tbaa !37
  %7 = load ptr, ptr %6, align 8, !tbaa !50
  call void @llvm.lifetime.start.p0(i64 8, ptr nonnull %4) #21
  %8 = getelementptr inbounds nuw i8, ptr %7, i64 161
  %9 = load i8, ptr %8, align 1, !tbaa !131
  %.not = icmp eq i8 %9, 0
  br i1 %.not, label %10, label %26

10:                                               ; preds = %3
  %11 = getelementptr inbounds nuw i8, ptr %7, i64 440
  %12 = load i8, ptr %11, align 8, !tbaa !97
  %.not.i = icmp eq i8 %12, 0
  br i1 %.not.i, label %15, label %13

13:                                               ; preds = %10
  %14 = getelementptr inbounds nuw i8, ptr %7, i64 304
  tail call void @lzma_end(ptr noundef nonnull %14) #21
  store i8 0, ptr %11, align 8, !tbaa !97
  br label %15

15:                                               ; preds = %13, %10
  %16 = getelementptr inbounds nuw i8, ptr %7, i64 304
  tail call void @llvm.memset.p0.i64(ptr noundef nonnull align 8 dereferenceable(136) %16, i8 0, i64 136, i1 false)
  %17 = tail call i32 @lzma_stream_decoder(ptr noundef nonnull %16, i64 noundef -1, i32 noundef 0) #21
  %.not17.i = icmp eq i32 %17, 0
  br i1 %.not17.i, label %19, label %18

18:                                               ; preds = %15
  tail call void (ptr, i32, ptr, ...) @archive_set_error(ptr noundef nonnull %0, i32 noundef -1, ptr noundef nonnull @.str.99, i32 noundef %17) #21
  br label %zipx_xz_init.exit.thread

19:                                               ; preds = %15
  store i8 1, ptr %11, align 8, !tbaa !97
  %20 = getelementptr inbounds nuw i8, ptr %7, i64 168
  %21 = load ptr, ptr %20, align 8, !tbaa !101
  tail call void @free(ptr noundef %21) #21
  %22 = getelementptr inbounds nuw i8, ptr %7, i64 176
  store i64 262144, ptr %22, align 8, !tbaa !156
  %23 = tail call noalias dereferenceable_or_null(262144) ptr @malloc(i64 noundef 262144) #24
  store ptr %23, ptr %20, align 8, !tbaa !101
  %24 = icmp eq ptr %23, null
  br i1 %24, label %25, label %zipx_xz_init.exit

25:                                               ; preds = %19
  tail call void (ptr, i32, ptr, ...) @archive_set_error(ptr noundef nonnull %0, i32 noundef 12, ptr noundef nonnull @.str.100) #21
  br label %zipx_xz_init.exit.thread

zipx_xz_init.exit:                                ; preds = %19
  store i8 1, ptr %8, align 1, !tbaa !131
  br label %26

26:                                               ; preds = %zipx_xz_init.exit, %3
  %27 = call ptr @__archive_read_ahead(ptr noundef nonnull %0, i64 noundef 1, ptr noundef nonnull %4) #21
  %28 = load i64, ptr %4, align 8, !tbaa !69
  %29 = icmp slt i64 %28, 0
  br i1 %29, label %30, label %31

30:                                               ; preds = %26
  call void (ptr, i32, ptr, ...) @archive_set_error(ptr noundef nonnull %0, i32 noundef 84, ptr noundef nonnull @.str.95) #21
  br label %zipx_xz_init.exit.thread

31:                                               ; preds = %26
  %32 = getelementptr inbounds nuw i8, ptr %7, i64 120
  %33 = load i64, ptr %32, align 8, !tbaa !92
  %. = call i64 @llvm.smin.i64(i64 %33, i64 %28)
  %34 = getelementptr inbounds nuw i8, ptr %7, i64 304
  store ptr %27, ptr %34, align 8, !tbaa !165
  %35 = getelementptr inbounds nuw i8, ptr %7, i64 312
  store i64 %., ptr %35, align 8, !tbaa !166
  %36 = getelementptr inbounds nuw i8, ptr %7, i64 320
  store i64 0, ptr %36, align 8, !tbaa !167
  %37 = getelementptr inbounds nuw i8, ptr %7, i64 168
  %38 = load ptr, ptr %37, align 8, !tbaa !101
  %39 = getelementptr inbounds nuw i8, ptr %7, i64 328
  store ptr %38, ptr %39, align 8, !tbaa !168
  %40 = getelementptr inbounds nuw i8, ptr %7, i64 176
  %41 = load i64, ptr %40, align 8, !tbaa !156
  %42 = getelementptr inbounds nuw i8, ptr %7, i64 336
  store i64 %41, ptr %42, align 8, !tbaa !169
  %43 = getelementptr inbounds nuw i8, ptr %7, i64 344
  store i64 0, ptr %43, align 8, !tbaa !170
  %44 = call i32 @lzma_code(ptr noundef nonnull %34, i32 noundef 0) #21
  switch i32 %44, label %46 [
    i32 9, label %45
    i32 2, label %54
    i32 0, label %54
    i32 1, label %47
  ]

45:                                               ; preds = %31
  call void (ptr, i32, ptr, ...) @archive_set_error(ptr noundef nonnull %0, i32 noundef -1, ptr noundef nonnull @.str.96, i32 noundef 9) #21
  br label %zipx_xz_init.exit.thread

46:                                               ; preds = %31
  call void (ptr, i32, ptr, ...) @archive_set_error(ptr noundef nonnull %0, i32 noundef -1, ptr noundef nonnull @.str.97, i32 noundef %44) #21
  br label %zipx_xz_init.exit.thread

47:                                               ; preds = %31
  call void @lzma_end(ptr noundef nonnull %34) #21
  %48 = getelementptr inbounds nuw i8, ptr %7, i64 440
  store i8 0, ptr %48, align 8, !tbaa !97
  %49 = load i64, ptr %36, align 8, !tbaa !167
  %50 = load i64, ptr %32, align 8, !tbaa !92
  %.not50 = icmp eq i64 %49, %50
  br i1 %.not50, label %52, label %51

51:                                               ; preds = %47
  call void (ptr, i32, ptr, ...) @archive_set_error(ptr noundef nonnull %0, i32 noundef -1, ptr noundef nonnull @.str.98) #21
  br label %zipx_xz_init.exit.thread

52:                                               ; preds = %47
  %53 = getelementptr inbounds nuw i8, ptr %7, i64 162
  store i8 1, ptr %53, align 2, !tbaa !74
  br label %54

54:                                               ; preds = %31, %31, %52
  %55 = load i64, ptr %36, align 8, !tbaa !167
  %56 = call i64 @__archive_read_consume(ptr noundef nonnull %0, i64 noundef %55) #21
  %57 = load i64, ptr %32, align 8, !tbaa !92
  %58 = sub nsw i64 %57, %55
  store i64 %58, ptr %32, align 8, !tbaa !92
  %59 = getelementptr inbounds nuw i8, ptr %7, i64 128
  %60 = load i64, ptr %59, align 8, !tbaa !88
  %61 = add nsw i64 %60, %55
  store i64 %61, ptr %59, align 8, !tbaa !88
  %62 = load i64, ptr %43, align 8, !tbaa !170
  %63 = getelementptr inbounds nuw i8, ptr %7, i64 136
  %64 = load i64, ptr %63, align 8, !tbaa !72
  %65 = add i64 %64, %62
  store i64 %65, ptr %63, align 8, !tbaa !72
  store i64 %62, ptr %2, align 8, !tbaa !69
  %66 = load ptr, ptr %37, align 8, !tbaa !101
  store ptr %66, ptr %1, align 8, !tbaa !73
  br label %zipx_xz_init.exit.thread

zipx_xz_init.exit.thread:                         ; preds = %25, %18, %54, %51, %46, %45, %30
  %.0 = phi i32 [ -30, %30 ], [ -30, %46 ], [ -30, %51 ], [ 0, %54 ], [ -30, %45 ], [ -30, %25 ], [ -25, %18 ]
  call void @llvm.lifetime.end.p0(i64 8, ptr nonnull %4) #21
  ret i32 %.0
}